(itopple_dataset
ToppleNormalizationInfo
p0
(dp1
S'density_offset'
p2
I0
sS'density_max'
p3
cnumpy.core.multiarray
scalar
p4
(cnumpy
dtype
p5
(S'f8'
p6
I0
I1
tp7
Rp8
(I3
S'<'
p9
NNNI-1
I-1
I0
tp10
bS'\x00\x00\x00\x00\x00\x00$@'
p11
tp12
Rp13
sS'inertia_max'
p14
g4
(g8
S'\x00\x00\xe8"\xda\\\xd4?'
p15
tp16
Rp17
sS'max_rot'
p18
g4
(g8
S'\x00\x00\x00\xc0\xd8\xae`@'
p19
tp20
Rp21
sS'friction_max'
p22
g4
(g8
S'\x00\x00\x00\x00\x00\x00\x00\x00'
p23
tp24
Rp25
sS'pc_max'
p26
g4
(g8
S'a\xed\xfeoq\x9c\xf0?'
p27
tp28
Rp29
sS'friction_offset'
p30
I0
sS'mass_offset'
p31
g4
(g8
S'\x00\x00\x00\xa0>\xe8\xc0?'
p32
tp33
Rp34
sS'max_delta_rot'
p35
g4
(g8
S'\xd8\xbd\xe0\xee\xd8\xae`@'
p36
tp37
Rp38
sS'max_lin_vel'
p39
g4
(g8
S'\x00\x00\x00@l\xf9\x0b@'
p40
tp41
Rp42
sS'mass_max'
p43
g4
(g8
S'\x00\x00\x00V\x12\x13\x01@'
p44
tp45
Rp46
sS'force_vec_max'
p47
g4
(g8
S',<\xaee\x93c\x1e@'
p48
tp49
Rp50
sS'max_pos'
p51
g4
(g8
S'\xa3B`\xcb\xb7\xa7\xc9?'
p52
tp53
Rp54
sS'max_ang_vel'
p55
g4
(g8
S'\x00\x00\x00\x80\x90\tH@'
p56
tp57
Rp58
sS'inertia_offset'
p59
g4
(g8
S'\x00\x00\x00`ty<?'
p60
tp61
Rp62
sb.