(itopple_dataset
ToppleNormalizationInfo
p0
(dp1
S'density_offset'
p2
I0
sS'density_max'
p3
cnumpy.core.multiarray
scalar
p4
(cnumpy
dtype
p5
(S'f8'
p6
I0
I1
tp7
Rp8
(I3
S'<'
p9
NNNI-1
I-1
I0
tp10
bS'\x00\x00\x00\x00\x00\x00$@'
p11
tp12
Rp13
sS'inertia_max'
p14
g4
(g8
S'\x00\x00\x97_\x7f\xe5\xf0?'
p15
tp16
Rp17
sS'max_rot'
p18
g4
(g8
S'\x00\x00\x00\xc0\xa9\x8e`@'
p19
tp20
Rp21
sS'pc_max'
p22
g4
(g8
S'|\xf4\xc4z\xc3\xc3\xe7?'
p23
tp24
Rp25
sS'mass_offset'
p26
g4
(g8
S'\x00\x00\x00\xa0}i\xb5?'
p27
tp28
Rp29
sS'max_delta_rot'
p30
g4
(g8
S'\xa2.M\x89\xaa\x8e`@'
p31
tp32
Rp33
sS'max_lin_vel'
p34
g4
(g8
S'\x00\x00\x00\xc0C\x80\x08@'
p35
tp36
Rp37
sS'mass_max'
p38
g4
(g8
S'\x00\x00\x80\xa9Ph\x19@'
p39
tp40
Rp41
sS'force_vec_max'
p42
g4
(g8
S'o\x8b\xf2a\xb1\x8e,@'
p43
tp44
Rp45
sS'max_pos'
p46
g4
(g8
S'\x1f3Kz\xeb\xfb\xc6?'
p47
tp48
Rp49
sS'max_ang_vel'
p50
g4
(g8
S'\x00\x00\x00\x80\x07\xcaG@'
p51
tp52
Rp53
sS'inertia_offset'
p54
g4
(g8
S'\x00\x00\x00 \r\x14-?'
p55
tp56
Rp57
sb.