(itopple_dataset
ToppleNormalizationInfo
p0
(dp1
S'density_offset'
p2
I0
sS'density_max'
p3
cnumpy.core._multiarray_umath
scalar
p4
(cnumpy
dtype
p5
(S'f8'
p6
I0
I1
tp7
Rp8
(I3
S'<'
p9
NNNI-1
I-1
I0
tp10
bS'\x00\x00\x00\x00\x00\x00$@'
p11
tp12
Rp13
sS'inertia_max'
p14
g4
(g8
S'\x00\x00\xe0\x06\xa1[\xd8?'
p15
tp16
Rp17
sS'max_rot'
p18
g4
(g8
S'\x00\x00\x00\xc0U\x82`@'
p19
tp20
Rp21
sS'pc_max'
p22
g4
(g8
S'\x18\x14{\x84\xcfv\xeb?'
p23
tp24
Rp25
sS'mass_offset'
p26
g4
(g8
S'\x00\x00\x00\x80\x8f\xc4\xc0?'
p27
tp28
Rp29
sS'max_delta_rot'
p30
g4
(g8
S'\xb4\xf4\xb8&N\x82`@'
p31
tp32
Rp33
sS'max_lin_vel'
p34
g4
(g8
S'\x00\x00\x00 1\xff\x0b@'
p35
tp36
Rp37
sS'mass_max'
p38
g4
(g8
S'\x00\x00\x00(\xd3\xe6\x0e@'
p39
tp40
Rp41
sS'force_vec_max'
p42
g4
(g8
S'n\x1e\xcd\xd7\xeb)+@'
p43
tp44
Rp45
sS'max_pos'
p46
g4
(g8
S'c\xdfF\x81\xa8L\xc6?'
p47
tp48
Rp49
sS'max_ang_vel'
p50
g4
(g8
S'\x00\x00\x00@\x0bBG@'
p51
tp52
Rp53
sS'inertia_offset'
p54
g4
(g8
S'\x00\x00\x00 \xf9]S?'
p55
tp56
Rp57
sb.