(itopple_dataset
ToppleNormalizationInfo
p0
(dp1
S'density_offset'
p2
I0
sS'density_max'
p3
cnumpy.core._multiarray_umath
scalar
p4
(cnumpy
dtype
p5
(S'f8'
p6
I0
I1
tp7
Rp8
(I3
S'<'
p9
NNNI-1
I-1
I0
tp10
bS'\x00\x00\x00\x00\x00\x00$@'
p11
tp12
Rp13
sS'inertia_max'
p14
g4
(g8
S'\x00\x00\xf4\x99_\x1c\xee?'
p15
tp16
Rp17
sS'max_rot'
p18
g4
(g8
S'\x00\x00\x00`3\xa1`@'
p19
tp20
Rp21
sS'pc_max'
p22
g4
(g8
S'\xd10\xb0\x14\x19+\xed?'
p23
tp24
Rp25
sS'mass_offset'
p26
g4
(g8
S'\x00\x00\x00\x00\xe3^\xb6?'
p27
tp28
Rp29
sS'max_delta_rot'
p30
g4
(g8
S'\x82\xe6\x93b3\xa1`@'
p31
tp32
Rp33
sS'max_lin_vel'
p34
g4
(g8
S'\x00\x00\x00\xa0w\xed\x0b@'
p35
tp36
Rp37
sS'mass_max'
p38
g4
(g8
S'\x00\x00\x00\xb4\xf7\x99\x1b@'
p39
tp40
Rp41
sS'force_vec_max'
p42
g4
(g8
S'#\xc3v\xef\xf8\x864@'
p43
tp44
Rp45
sS'max_pos'
p46
g4
(g8
S':\xa20\x0b\x87n\xc8?'
p47
tp48
Rp49
sS'max_ang_vel'
p50
g4
(g8
S'\x00\x00\x00\xe0\x0e\x0bH@'
p51
tp52
Rp53
sS'inertia_offset'
p54
g4
(g8
S'\x00\x00\x00`0q1?'
p55
tp56
Rp57
sb.