(itopple_dataset
ToppleNormalizationInfo
p0
(dp1
S'density_offset'
p2
I0
sS'density_max'
p3
cnumpy.core._multiarray_umath
scalar
p4
(cnumpy
dtype
p5
(S'f8'
p6
I0
I1
tp7
Rp8
(I3
S'<'
p9
NNNI-1
I-1
I0
tp10
bS'\x00\x00\x00\x00\x00\x00$@'
p11
tp12
Rp13
sS'inertia_max'
p14
g4
(g8
S'\x00\x00\x80\xff\xd2\x84\xe8?'
p15
tp16
Rp17
sS'max_rot'
p18
g4
(g8
S'\x00\x00\x00\x80\x86\x86`@'
p19
tp20
Rp21
sS'pc_max'
p22
g4
(g8
S'(\x7fD6\xcek\xe8?'
p23
tp24
Rp25
sS'mass_offset'
p26
g4
(g8
S'\x00\x00\x00\x80e\x00\xc7?'
p27
tp28
Rp29
sS'max_delta_rot'
p30
g4
(g8
S'6\x96z\x10\x89\x86`@'
p31
tp32
Rp33
sS'max_lin_vel'
p34
g4
(g8
S'\x00\x00\x00`U\xef\x0b@'
p35
tp36
Rp37
sS'mass_max'
p38
g4
(g8
S'\x00\x00\x00\xb4}N\x14@'
p39
tp40
Rp41
sS'force_vec_max'
p42
g4
(g8
S'\xc2a\x9a\x13<\xb00@'
p43
tp44
Rp45
sS'max_pos'
p46
g4
(g8
S'\x8e\xa5\x89j\xc3\xe6\xc6?'
p47
tp48
Rp49
sS'max_ang_vel'
p50
g4
(g8
S'\x00\x00\x00@\x08\x86G@'
p51
tp52
Rp53
sS'inertia_offset'
p54
g4
(g8
S'\x00\x00\x00\x00A\xaaZ?'
p55
tp56
Rp57
sb.